; Function Attrs: mustprogress uwtable
define void @_ZN11BigUnsignedppEv(ptr noundef nonnull align 8 captures(none) dereferenceable(16) %0) local_unnamed_addr #0 align 2 {
  %2 = getelementptr inbounds nuw i8, ptr %0, i64 4
  %3 = load i32, ptr %2, align 4, !tbaa !14
  %.not = icmp eq i32 %3, 0
  br i1 %.not, label %._crit_edge.thread, label %.lr.ph

.lr.ph:                                           ; preds = %1
  %4 = getelementptr inbounds nuw i8, ptr %0, i64 8
  %5 = load ptr, ptr %4, align 8, !tbaa !13
  %6 = zext i32 %3 to i64
  br label %7

7:                                                ; preds = %.lr.ph, %7
  %indvars.iv = phi i64 [ 0, %.lr.ph ], [ %indvars.iv.next, %7 ]
  %8 = getelementptr inbounds nuw i64, ptr %5, i64 %indvars.iv
  %9 = load i64, ptr %8, align 8, !tbaa !15
  %10 = add i64 %9, 1
  store i64 %10, ptr %8, align 8, !tbaa !15
  %11 = icmp eq i64 %10, 0
  %indvars.iv.next = add nuw nsw i64 %indvars.iv, 1
  %12 = icmp samesign ult i64 %indvars.iv.next, %6
  %13 = select i1 %12, i1 %11, i1 false
  br i1 %13, label %7, label %._crit_edge, !llvm.loop !47

._crit_edge:                                      ; preds = %7
  br i1 %11, label %._crit_edge.thread, label %32

._crit_edge.thread:                               ; preds = %1, %._crit_edge
  %.07.lcssa16 = phi i64 [ %indvars.iv.next, %._crit_edge ], [ 0, %1 ]
  %14 = add i32 %3, 1
  %15 = load i32, ptr %0, align 8, !tbaa !6
  %16 = icmp ugt i32 %14, %15
  br i1 %16, label %17, label %_ZN15NumberlikeArrayImE15allocateAndCopyEj.exit

17:                                               ; preds = %._crit_edge.thread
  %18 = getelementptr inbounds nuw i8, ptr %0, i64 8
  %19 = load ptr, ptr %18, align 8, !tbaa !13
  store i32 %14, ptr %0, align 8, !tbaa !6
  %20 = zext i32 %14 to i64
  %21 = shl nuw nsw i64 %20, 3
  %22 = tail call noalias noundef nonnull ptr @_Znam(i64 noundef %21) #8
  store ptr %22, ptr %18, align 8, !tbaa !13
  br i1 %.not, label %._crit_edge.i, label %.lr.ph.preheader.i

.lr.ph.preheader.i:                               ; preds = %17
  %wide.trip.count.i = zext i32 %3 to i64
  br label %.lr.ph.i

.lr.ph.i:                                         ; preds = %.lr.ph.i, %.lr.ph.preheader.i
  %indvars.iv.i = phi i64 [ 0, %.lr.ph.preheader.i ], [ %indvars.iv.next.i, %.lr.ph.i ]
  %23 = getelementptr inbounds nuw i64, ptr %19, i64 %indvars.iv.i
  %24 = load i64, ptr %23, align 8, !tbaa !15
  %25 = getelementptr inbounds nuw i64, ptr %22, i64 %indvars.iv.i
  store i64 %24, ptr %25, align 8, !tbaa !15
  %indvars.iv.next.i = add nuw nsw i64 %indvars.iv.i, 1
  %exitcond.not.i = icmp eq i64 %indvars.iv.next.i, %wide.trip.count.i
  br i1 %exitcond.not.i, label %._crit_edge.thread.i, label %.lr.ph.i, !llvm.loop !21

._crit_edge.i:                                    ; preds = %17
  %26 = icmp eq ptr %19, null
  br i1 %26, label %_ZN15NumberlikeArrayImE15allocateAndCopyEj.exit, label %._crit_edge.thread.i

._crit_edge.thread.i:                             ; preds = %.lr.ph.i, %._crit_edge.i
  tail call void @_ZdaPv(ptr noundef nonnull %19) #11
  %.pre = load i32, ptr %2, align 4, !tbaa !14
  br label %_ZN15NumberlikeArrayImE15allocateAndCopyEj.exit

_ZN15NumberlikeArrayImE15allocateAndCopyEj.exit:  ; preds = %._crit_edge.thread, %._crit_edge.i, %._crit_edge.thread.i
  %27 = phi i32 [ %3, %._crit_edge.thread ], [ 0, %._crit_edge.i ], [ %.pre, %._crit_edge.thread.i ]
  %28 = add i32 %27, 1
  store i32 %28, ptr %2, align 4, !tbaa !14
  %29 = getelementptr inbounds nuw i8, ptr %0, i64 8
  %30 = load ptr, ptr %29, align 8, !tbaa !13
  %31 = getelementptr inbounds nuw i64, ptr %30, i64 %.07.lcssa16
  store i64 1, ptr %31, align 8, !tbaa !15
  br label %32

32:                                               ; preds = %_ZN15NumberlikeArrayImE15allocateAndCopyEj.exit, %._crit_edge
  ret void
}